; Function Attrs: mustprogress nofree norecurse nosync nounwind willreturn memory(read, inaccessiblemem: none) uwtable
define hidden noundef i64 @_ZNK6google8protobuf20stringpiece_internal11StringPiece12find_last_ofES2_m(ptr noundef nonnull readonly align 8 captures(none) dereferenceable(16) %0, ptr readonly captures(none) %1, i64 %2, i64 noundef %3) local_unnamed_addr #9 align 2 {
  %5 = alloca [256 x i8], align 16
  %6 = getelementptr inbounds nuw i8, ptr %0, i64 8
  %7 = load i64, ptr %6, align 8, !tbaa !10
  %8 = icmp eq i64 %7, 0
  %9 = icmp eq i64 %2, 0
  %or.cond14 = select i1 %8, i1 true, i1 %9
  br i1 %or.cond14, label %_ZNK6google8protobuf20stringpiece_internal11StringPiece12find_last_ofEcm.exit, label %10

10:                                               ; preds = %4
  %11 = icmp eq i64 %2, 1
  br i1 %11, label %12, label %25

12:                                               ; preds = %10
  %13 = load i8, ptr %1, align 1, !tbaa !16
  %14 = add i64 %7, -1
  %.sroa.speculated.i.i = tail call i64 @llvm.umin.i64(i64 %14, i64 %3)
  %15 = load ptr, ptr %0, align 8, !tbaa !3
  %16 = getelementptr inbounds nuw i8, ptr %15, i64 %.sroa.speculated.i.i
  %17 = load i8, ptr %16, align 1, !tbaa !16
  %18 = icmp eq i8 %17, %13
  br i1 %18, label %_ZNK6google8protobuf20stringpiece_internal11StringPiece12find_last_ofEcm.exit, label %.lr.ph.i.i

.lr.ph.i.i:                                       ; preds = %12, %20
  %.0712.i.i = phi i64 [ %21, %20 ], [ %.sroa.speculated.i.i, %12 ]
  %19 = icmp eq i64 %.0712.i.i, 0
  br i1 %19, label %_ZNK6google8protobuf20stringpiece_internal11StringPiece12find_last_ofEcm.exit, label %20

20:                                               ; preds = %.lr.ph.i.i
  %21 = add i64 %.0712.i.i, -1
  %22 = getelementptr inbounds nuw i8, ptr %15, i64 %21
  %23 = load i8, ptr %22, align 1, !tbaa !16
  %24 = icmp eq i8 %23, %13
  br i1 %24, label %_ZNK6google8protobuf20stringpiece_internal11StringPiece12find_last_ofEcm.exit, label %.lr.ph.i.i, !llvm.loop !17

25:                                               ; preds = %10
  call void @llvm.lifetime.start.p0(i64 256, ptr nonnull %5) #15
  call void @llvm.memset.p0.i64(ptr noundef nonnull align 16 dereferenceable(256) %5, i8 0, i64 256, i1 false)
  br label %.lr.ph.i

.lr.ph.i:                                         ; preds = %25, %.lr.ph.i
  %.05.i = phi i64 [ %30, %.lr.ph.i ], [ 0, %25 ]
  %26 = getelementptr inbounds nuw i8, ptr %1, i64 %.05.i
  %27 = load i8, ptr %26, align 1, !tbaa !16
  %28 = zext i8 %27 to i64
  %29 = getelementptr inbounds nuw i8, ptr %5, i64 %28
  store i8 1, ptr %29, align 1, !tbaa !19
  %30 = add nuw i64 %.05.i, 1
  %exitcond.not.i = icmp eq i64 %30, %2
  br i1 %exitcond.not.i, label %_ZN6google8protobuf20stringpiece_internalL16BuildLookupTableENS1_11StringPieceEPb.exit, label %.lr.ph.i, !llvm.loop !21

_ZN6google8protobuf20stringpiece_internalL16BuildLookupTableENS1_11StringPieceEPb.exit: ; preds = %.lr.ph.i
  %31 = add i64 %7, -1
  %.sroa.speculated = tail call i64 @llvm.umin.i64(i64 %31, i64 %3)
  %32 = load ptr, ptr %0, align 8, !tbaa !3
  br label %33

33:                                               ; preds = %33, %_ZN6google8protobuf20stringpiece_internalL16BuildLookupTableENS1_11StringPieceEPb.exit
  %.06 = phi i64 [ %.sroa.speculated, %_ZN6google8protobuf20stringpiece_internalL16BuildLookupTableENS1_11StringPieceEPb.exit ], [ %41, %33 ]
  %34 = getelementptr inbounds nuw i8, ptr %32, i64 %.06
  %35 = load i8, ptr %34, align 1, !tbaa !16
  %36 = zext i8 %35 to i64
  %37 = getelementptr inbounds nuw [256 x i8], ptr %5, i64 0, i64 %36
  %38 = load i8, ptr %37, align 1, !tbaa !19, !range !22, !noundef !23
  %39 = trunc nuw i8 %38 to i1
  %40 = icmp eq i64 %.06, 0
  %or.cond = or i1 %40, %39
  %41 = add i64 %.06, -1
  br i1 %or.cond, label %42, label %33, !llvm.loop !27

42:                                               ; preds = %33
  %spec.select = select i1 %39, i64 %.06, i64 -1
  call void @llvm.lifetime.end.p0(i64 256, ptr nonnull %5) #15
  br label %_ZNK6google8protobuf20stringpiece_internal11StringPiece12find_last_ofEcm.exit

_ZNK6google8protobuf20stringpiece_internal11StringPiece12find_last_ofEcm.exit: ; preds = %20, %.lr.ph.i.i, %12, %4, %42
  %.07 = phi i64 [ %spec.select, %42 ], [ -1, %4 ], [ %.sroa.speculated.i.i, %12 ], [ -1, %.lr.ph.i.i ], [ %21, %20 ]
  ret i64 %.07
}